; Function Attrs: mustprogress nofree nounwind uwtable
define noundef double @_ZNK8tinyxml210XMLElement15DoubleAttributeEPKcd(ptr noundef nonnull readonly align 8 captures(none) dereferenceable(120) %0, ptr noundef readonly captures(address) %1, double noundef %2) local_unnamed_addr #14 align 2 {
  %4 = alloca double, align 8
  call void @llvm.lifetime.start.p0(i64 8, ptr nonnull %4) #31
  store double %2, ptr %4, align 8, !tbaa !105
  %5 = getelementptr inbounds nuw i8, ptr %0, i64 112
  %.0710.i.i = load ptr, ptr %5, align 8, !tbaa !103
  %.not11.i.i = icmp eq ptr %.0710.i.i, null
  br i1 %.not11.i.i, label %_ZNK8tinyxml210XMLElement20QueryDoubleAttributeEPKcPd.exit, label %.lr.ph.i.i

.lr.ph.i.i:                                       ; preds = %3, %11
  %.0712.i.i = phi ptr [ %.07.i.i, %11 ], [ %.0710.i.i, %3 ]
  %6 = getelementptr inbounds nuw i8, ptr %.0712.i.i, i64 8
  %7 = tail call noundef ptr @_ZN8tinyxml27StrPair6GetStrEv(ptr noundef nonnull align 8 dereferenceable(24) %6)
  %8 = icmp eq ptr %7, %1
  br i1 %8, label %_ZNK8tinyxml210XMLElement13FindAttributeEPKc.exit.i, label %_ZN8tinyxml27XMLUtil11StringEqualEPKcS2_i.exit.i.i

_ZN8tinyxml27XMLUtil11StringEqualEPKcS2_i.exit.i.i: ; preds = %.lr.ph.i.i
  %9 = tail call i32 @strncmp(ptr noundef nonnull dereferenceable(1) %7, ptr noundef nonnull readonly dereferenceable(1) %1, i64 noundef 2147483647) #33
  %10 = icmp eq i32 %9, 0
  br i1 %10, label %_ZNK8tinyxml210XMLElement13FindAttributeEPKc.exit.i, label %11

11:                                               ; preds = %_ZN8tinyxml27XMLUtil11StringEqualEPKcS2_i.exit.i.i
  %12 = getelementptr inbounds nuw i8, ptr %.0712.i.i, i64 64
  %.07.i.i = load ptr, ptr %12, align 8, !tbaa !103
  %.not.i.i = icmp eq ptr %.07.i.i, null
  br i1 %.not.i.i, label %_ZNK8tinyxml210XMLElement20QueryDoubleAttributeEPKcPd.exit, label %.lr.ph.i.i, !llvm.loop !104

_ZNK8tinyxml210XMLElement13FindAttributeEPKc.exit.i: ; preds = %_ZN8tinyxml27XMLUtil11StringEqualEPKcS2_i.exit.i.i, %.lr.ph.i.i
  %13 = getelementptr inbounds nuw i8, ptr %.0712.i.i, i64 32
  %14 = tail call noundef ptr @_ZN8tinyxml27StrPair6GetStrEv(ptr noundef nonnull align 8 dereferenceable(24) %13)
  %15 = call i32 (ptr, ptr, ...) @__isoc99_sscanf(ptr noundef readonly %14, ptr noundef nonnull @.str.15, ptr noundef nonnull %4) #31
  %.pre = load double, ptr %4, align 8, !tbaa !105
  br label %_ZNK8tinyxml210XMLElement20QueryDoubleAttributeEPKcPd.exit

_ZNK8tinyxml210XMLElement20QueryDoubleAttributeEPKcPd.exit: ; preds = %11, %3, %_ZNK8tinyxml210XMLElement13FindAttributeEPKc.exit.i
  %16 = phi double [ %2, %3 ], [ %.pre, %_ZNK8tinyxml210XMLElement13FindAttributeEPKc.exit.i ], [ %2, %11 ]
  call void @llvm.lifetime.end.p0(i64 8, ptr nonnull %4) #31
  ret double %16
}